target datalayout = "e-m:e-p270:32:32-p271:32:32-p272:64:64-i64:64-i128:128-f80:128-n8:16:32:64-S128"
target triple = "x86_64-pc-linux-gnu"

%struct.mi_page_s = type { i8, i8, i16, i16, %union.mi_page_flags_s, i8, ptr, ptr, i16, i8, i8, i64, ptr, i64, i64, ptr, ptr }
%union.mi_page_flags_s = type { i8 }
%struct.mi_segment_s = type { %struct.mi_memid_s, i8, i8, i64, ptr, ptr, ptr, i8, i8, i64, i64, i64, i64, i64, i64, ptr, ptr, i64, i64, i32, [1 x %struct.mi_page_s] }
%struct.mi_memid_s = type { %union.anon, i8, i8, i8, i32 }
%union.anon = type { %struct.mi_memid_os_info }
%struct.mi_memid_os_info = type { ptr, i64 }

; Function Attrs: nounwind uwtable
define hidden void @_mi_segment_huge_page_reset(ptr noundef %0, ptr noundef %1, ptr noundef %2) #0 {
  %4 = alloca ptr, align 8
  %5 = alloca ptr, align 8
  %6 = alloca ptr, align 8
  %7 = alloca i64, align 8
  %8 = alloca ptr, align 8
  store ptr %0, ptr %4, align 8, !tbaa !3
  store ptr %1, ptr %5, align 8, !tbaa !8
  store ptr %2, ptr %6, align 8, !tbaa !87
  %9 = load ptr, ptr %4, align 8, !tbaa !3
  %10 = getelementptr inbounds nuw %struct.mi_segment_s, ptr %9, i32 0, i32 1
  %11 = load i8, ptr %10, align 8, !tbaa !88, !range !30, !noundef !31
  %12 = trunc i8 %11 to i1
  br i1 %12, label %13, label %35

13:                                               ; preds = %3
  %14 = load ptr, ptr %5, align 8, !tbaa !8
  %15 = getelementptr inbounds nuw %struct.mi_page_s, ptr %14, i32 0, i32 1
  %16 = load i8, ptr %15, align 1
  %17 = lshr i8 %16, 1
  %18 = and i8 %17, 1
  %19 = zext i8 %18 to i32
  %20 = icmp ne i32 %19, 0
  br i1 %20, label %21, label %35

21:                                               ; preds = %13
  call void @llvm.lifetime.start.p0(i64 8, ptr %7) #7
  %22 = load ptr, ptr %6, align 8, !tbaa !87
  %23 = call i64 @mi_usable_size(ptr noundef %22) #8
  store i64 %23, ptr %7, align 8, !tbaa !14
  %24 = load i64, ptr %7, align 8, !tbaa !14
  %25 = icmp ugt i64 %24, 8
  br i1 %25, label %26, label %34

26:                                               ; preds = %21
  %27 = load i64, ptr %7, align 8, !tbaa !14
  %28 = sub i64 %27, 8
  store i64 %28, ptr %7, align 8, !tbaa !14
  call void @llvm.lifetime.start.p0(i64 8, ptr %8) #7
  %29 = load ptr, ptr %6, align 8, !tbaa !87
  %30 = getelementptr inbounds nuw i8, ptr %29, i64 8
  store ptr %30, ptr %8, align 8, !tbaa !12
  %31 = load ptr, ptr %8, align 8, !tbaa !12
  %32 = load i64, ptr %7, align 8, !tbaa !14
  %33 = call zeroext i1 @_mi_os_reset(ptr noundef %31, i64 noundef %32) #8
  call void @llvm.lifetime.end.p0(i64 8, ptr %8) #7
  br label %34

34:                                               ; preds = %26, %21
  call void @llvm.lifetime.end.p0(i64 8, ptr %7) #7
  br label %35

35:                                               ; preds = %34, %13, %3
  ret void
}