; Function Attrs: nounwind uwtable
define hidden void @_mi_segment_huge_page_reset(ptr noundef readonly captures(none) %0, ptr noundef readonly captures(none) %1, ptr noundef %2) local_unnamed_addr #2 {
  %4 = getelementptr inbounds nuw i8, ptr %0, i64 24
  %5 = load i8, ptr %4, align 8, !tbaa !91, !range !37, !noundef !38
  %6 = trunc nuw i8 %5 to i1
  br i1 %6, label %7, label %18

7:                                                ; preds = %3
  %8 = getelementptr inbounds nuw i8, ptr %1, i64 1
  %9 = load i8, ptr %8, align 1
  %10 = and i8 %9, 2
  %.not = icmp eq i8 %10, 0
  br i1 %.not, label %18, label %11

11:                                               ; preds = %7
  %12 = tail call i64 @mi_usable_size(ptr noundef %2) #8
  %13 = icmp ugt i64 %12, 8
  br i1 %13, label %14, label %18

14:                                               ; preds = %11
  %15 = add i64 %12, -8
  %16 = getelementptr inbounds nuw i8, ptr %2, i64 8
  %17 = tail call zeroext i1 @_mi_os_reset(ptr noundef nonnull %16, i64 noundef %15) #8
  br label %18

18:                                               ; preds = %11, %14, %7, %3
  ret void
}